; Function Attrs: nounwind uwtable
define dso_local double @geqo_eval(ptr noundef %0, ptr noundef readonly captures(none) %1, i32 noundef %2) local_unnamed_addr #0 {
  %4 = load ptr, ptr @CurrentMemoryContext, align 8
  %5 = tail call ptr @AllocSetContextCreateInternal(ptr noundef %4, ptr noundef nonnull @.str, i64 noundef 0, i64 noundef 8192, i64 noundef 8388608) #2
  %6 = load ptr, ptr @CurrentMemoryContext, align 8
  store ptr %5, ptr @CurrentMemoryContext, align 8
  %7 = getelementptr inbounds nuw i8, ptr %0, i64 112
  %8 = load ptr, ptr %7, align 8
  %.not.i = icmp eq ptr %8, null
  br i1 %.not.i, label %list_length.exit, label %9

9:                                                ; preds = %3
  %10 = getelementptr inbounds nuw i8, ptr %8, i64 4
  %11 = load i32, ptr %10, align 4
  br label %list_length.exit

list_length.exit:                                 ; preds = %3, %9
  %12 = phi i32 [ %11, %9 ], [ 0, %3 ]
  %13 = getelementptr inbounds nuw i8, ptr %0, i64 120
  %14 = load ptr, ptr %13, align 8
  store ptr null, ptr %13, align 8
  %15 = tail call ptr @gimme_tree(ptr noundef nonnull %0, ptr noundef %1, i32 noundef %2)
  %.not = icmp eq ptr %15, null
  br i1 %.not, label %21, label %16

16:                                               ; preds = %list_length.exit
  %17 = getelementptr inbounds nuw i8, ptr %15, i64 72
  %18 = load ptr, ptr %17, align 8
  %19 = getelementptr inbounds nuw i8, ptr %18, i64 64
  %20 = load double, ptr %19, align 8
  br label %21

21:                                               ; preds = %list_length.exit, %16
  %.0 = phi double [ %20, %16 ], [ 0x7FEFFFFFFFFFFFFF, %list_length.exit ]
  %22 = load ptr, ptr %7, align 8
  %23 = tail call ptr @list_truncate(ptr noundef %22, i32 noundef %12) #2
  store ptr %23, ptr %7, align 8
  store ptr %14, ptr %13, align 8
  store ptr %6, ptr @CurrentMemoryContext, align 8
  tail call void @MemoryContextDelete(ptr noundef %5) #2
  ret double %.0
}